; Function Attrs: nounwind uwtable
define ptr @l_Lean_Elab_expandDeclId___rarg___lambda__2(ptr noundef %0, ptr noundef %1, ptr noundef %2, ptr noundef %3, ptr noundef %4, ptr noundef %5, ptr noundef %6, ptr noundef %7, ptr noundef %8, ptr noundef %9, ptr noundef %10) #0 {
  %12 = getelementptr inbounds nuw i8, ptr %10, i64 8
  %13 = load ptr, ptr %12, align 8, !tbaa !9
  %14 = ptrtoint ptr %13 to i64
  %15 = and i64 %14, 1
  %.not = icmp eq i64 %15, 0
  br i1 %.not, label %16, label %lean_inc.exit34

16:                                               ; preds = %11
  %.val.i = load i32, ptr %13, align 4, !tbaa !4
  %17 = icmp sgt i32 %.val.i, 0
  br i1 %17, label %18, label %20, !prof !13

18:                                               ; preds = %16
  %19 = add nuw i32 %.val.i, 1
  store i32 %19, ptr %13, align 4, !tbaa !4
  br label %lean_inc.exit34

20:                                               ; preds = %16
  %.not.i38 = icmp eq i32 %.val.i, 0
  br i1 %.not.i38, label %lean_inc.exit34, label %21

21:                                               ; preds = %20
  tail call void @lean_inc_ref_cold(ptr noundef nonnull %13) #7
  br label %lean_inc.exit34

lean_inc.exit34:                                  ; preds = %21, %20, %18, %11
  %22 = getelementptr inbounds nuw i8, ptr %10, i64 16
  %23 = load ptr, ptr %22, align 8, !tbaa !9
  %24 = ptrtoint ptr %23 to i64
  %25 = and i64 %24, 1
  %.not51 = icmp eq i64 %25, 0
  br i1 %.not51, label %26, label %lean_inc.exit33

26:                                               ; preds = %lean_inc.exit34
  %.val.i39 = load i32, ptr %23, align 4, !tbaa !4
  %27 = icmp sgt i32 %.val.i39, 0
  br i1 %27, label %28, label %30, !prof !13

28:                                               ; preds = %26
  %29 = add nuw i32 %.val.i39, 1
  store i32 %29, ptr %23, align 4, !tbaa !4
  br label %lean_inc.exit33

30:                                               ; preds = %26
  %.not.i40 = icmp eq i32 %.val.i39, 0
  br i1 %.not.i40, label %lean_inc.exit33, label %31

31:                                               ; preds = %30
  tail call void @lean_inc_ref_cold(ptr noundef nonnull %23) #7
  br label %lean_inc.exit33

lean_inc.exit33:                                  ; preds = %31, %30, %28, %lean_inc.exit34
  %32 = ptrtoint ptr %10 to i64
  %33 = and i64 %32, 1
  %.not52 = icmp eq i64 %33, 0
  br i1 %.not52, label %34, label %lean_dec.exit35

34:                                               ; preds = %lean_inc.exit33
  %35 = load i32, ptr %10, align 4, !tbaa !4
  %36 = icmp sgt i32 %35, 1
  br i1 %36, label %37, label %39, !prof !13

37:                                               ; preds = %34
  %38 = add nsw i32 %35, -1
  store i32 %38, ptr %10, align 4, !tbaa !4
  br label %lean_dec.exit35

39:                                               ; preds = %34
  %.not.i = icmp eq i32 %35, 0
  br i1 %.not.i, label %lean_dec.exit35, label %40

40:                                               ; preds = %39
  tail call void @lean_dec_ref_cold(ptr noundef nonnull %10) #7
  br label %lean_dec.exit35

lean_dec.exit35:                                  ; preds = %40, %39, %37, %lean_inc.exit33
  %41 = getelementptr inbounds nuw i8, ptr %0, i64 16
  %42 = load ptr, ptr %41, align 8, !tbaa !9
  %43 = ptrtoint ptr %42 to i64
  %44 = and i64 %43, 1
  %.not53 = icmp eq i64 %44, 0
  br i1 %.not53, label %45, label %lean_inc.exit32

45:                                               ; preds = %lean_dec.exit35
  %.val.i42 = load i32, ptr %42, align 4, !tbaa !4
  %46 = icmp sgt i32 %.val.i42, 0
  br i1 %46, label %47, label %49, !prof !13

47:                                               ; preds = %45
  %48 = add nuw i32 %.val.i42, 1
  store i32 %48, ptr %42, align 4, !tbaa !4
  br label %lean_inc.exit32

49:                                               ; preds = %45
  %.not.i43 = icmp eq i32 %.val.i42, 0
  br i1 %.not.i43, label %lean_inc.exit32, label %50

50:                                               ; preds = %49
  tail call void @lean_inc_ref_cold(ptr noundef nonnull %42) #7
  br label %lean_inc.exit32

lean_inc.exit32:                                  ; preds = %50, %49, %47, %lean_dec.exit35
  %51 = ptrtoint ptr %0 to i64
  %52 = and i64 %51, 1
  %.not54 = icmp eq i64 %52, 0
  br i1 %.not54, label %53, label %lean_dec.exit

53:                                               ; preds = %lean_inc.exit32
  %54 = load i32, ptr %0, align 4, !tbaa !4
  %55 = icmp sgt i32 %54, 1
  br i1 %55, label %56, label %58, !prof !13

56:                                               ; preds = %53
  %57 = add nsw i32 %54, -1
  store i32 %57, ptr %0, align 4, !tbaa !4
  br label %lean_dec.exit

58:                                               ; preds = %53
  %.not.i36 = icmp eq i32 %54, 0
  br i1 %.not.i36, label %lean_dec.exit, label %59

59:                                               ; preds = %58
  tail call void @lean_dec_ref_cold(ptr noundef nonnull %0) #7
  br label %lean_dec.exit

lean_dec.exit:                                    ; preds = %59, %58, %56, %lean_inc.exit32
  br i1 %.not, label %60, label %lean_inc.exit31

60:                                               ; preds = %lean_dec.exit
  %.val.i45 = load i32, ptr %13, align 4, !tbaa !4
  %61 = icmp sgt i32 %.val.i45, 0
  br i1 %61, label %62, label %64, !prof !13

62:                                               ; preds = %60
  %63 = add nuw i32 %.val.i45, 1
  store i32 %63, ptr %13, align 4, !tbaa !4
  br label %lean_inc.exit31

64:                                               ; preds = %60
  %.not.i46 = icmp eq i32 %.val.i45, 0
  br i1 %.not.i46, label %lean_inc.exit31, label %65

65:                                               ; preds = %64
  tail call void @lean_inc_ref_cold(ptr noundef nonnull %13) #7
  br label %lean_inc.exit31

lean_inc.exit31:                                  ; preds = %65, %64, %62, %lean_dec.exit
  %66 = ptrtoint ptr %1 to i64
  %67 = and i64 %66, 1
  %.not55 = icmp eq i64 %67, 0
  br i1 %.not55, label %68, label %lean_inc.exit

68:                                               ; preds = %lean_inc.exit31
  %.val.i48 = load i32, ptr %1, align 4, !tbaa !4
  %69 = icmp sgt i32 %.val.i48, 0
  br i1 %69, label %70, label %72, !prof !13

70:                                               ; preds = %68
  %71 = add nuw i32 %.val.i48, 1
  store i32 %71, ptr %1, align 4, !tbaa !4
  br label %lean_inc.exit

72:                                               ; preds = %68
  %.not.i49 = icmp eq i32 %.val.i48, 0
  br i1 %.not.i49, label %lean_inc.exit, label %73

73:                                               ; preds = %72
  tail call void @lean_inc_ref_cold(ptr noundef nonnull %1) #7
  br label %lean_inc.exit

lean_inc.exit:                                    ; preds = %73, %72, %70, %lean_inc.exit31
  %74 = tail call ptr @l_Lean_addDocString_x27___rarg(ptr noundef %1, ptr noundef %2, ptr noundef %3, ptr noundef %4, ptr noundef %5, ptr noundef %6, ptr noundef %7, ptr noundef %13, ptr noundef %42) #7
  tail call void @lean_inc_heartbeat() #7
  %75 = tail call noalias ptr @mi_malloc_small(i64 noundef 56) #7
  %76 = icmp eq ptr %75, null
  br i1 %76, label %77, label %lean_alloc_closure.exit

77:                                               ; preds = %lean_inc.exit
  tail call void @lean_internal_panic_out_of_memory() #8
  unreachable

lean_alloc_closure.exit:                          ; preds = %lean_inc.exit
  %78 = getelementptr inbounds nuw i8, ptr %75, i64 4
  store i32 1, ptr %75, align 4, !tbaa !4
  store i32 -184549320, ptr %78, align 4
  %79 = getelementptr inbounds nuw i8, ptr %75, i64 8
  store ptr @l_Lean_Elab_expandDeclId___rarg___lambda__1___boxed, ptr %79, align 8, !tbaa !9
  %80 = getelementptr inbounds nuw i8, ptr %75, i64 16
  store i16 5, ptr %80, align 8, !tbaa !14
  %81 = getelementptr inbounds nuw i8, ptr %75, i64 18
  store i16 4, ptr %81, align 2, !tbaa !14
  %82 = getelementptr inbounds nuw i8, ptr %75, i64 24
  store ptr %1, ptr %82, align 8, !tbaa !9
  %83 = getelementptr inbounds nuw i8, ptr %75, i64 32
  store ptr %23, ptr %83, align 8, !tbaa !9
  %84 = getelementptr inbounds nuw i8, ptr %75, i64 40
  store ptr %13, ptr %84, align 8, !tbaa !9
  %85 = getelementptr inbounds nuw i8, ptr %75, i64 48
  store ptr %8, ptr %85, align 8, !tbaa !9
  %86 = tail call ptr @lean_apply_4(ptr noundef %9, ptr noundef nonnull inttoptr (i64 1 to ptr), ptr noundef nonnull inttoptr (i64 1 to ptr), ptr noundef %74, ptr noundef nonnull %75) #7
  ret ptr %86
}